target datalayout = "e-m:e-p270:32:32-p271:32:32-p272:64:64-i64:64-i128:128-f80:128-n8:16:32:64-S128"
target triple = "x86_64-unknown-linux-gnu"

%"class.proxygen::GenericFilter" = type { %"class.proxygen::HTTPCodec", %"class.proxygen::HTTPCodec::Callback", i8, i8, ptr, ptr, ptr, ptr, ptr, ptr }
%"class.proxygen::HTTPCodec" = type { ptr }
%"class.proxygen::HTTPCodec::Callback" = type { ptr }

; Function Attrs: mustprogress uwtable
define linkonce_odr void @_ZN8proxygen13GenericFilterINS_9HTTPCodecENS1_8CallbackEXadL_ZNS1_11setCallbackEPS2_EELb1ESt14default_deleteIS1_EE23setCallbackInternalImplES3_S3_(ptr noundef nonnull align 8 dereferenceable(72) %this, ptr noundef %cb, ptr noundef %sourceSet) #4 comdat align 2 {
entry:
  %this.addr = alloca ptr, align 8
  %cb.addr = alloca ptr, align 8
  %sourceSet.addr = alloca ptr, align 8
  store ptr %this, ptr %this.addr, align 8
  store ptr %cb, ptr %cb.addr, align 8
  store ptr %sourceSet, ptr %sourceSet.addr, align 8
  %this1 = load ptr, ptr %this.addr, align 8
  %callback_ = getelementptr inbounds %"class.proxygen::GenericFilter", ptr %this1, i32 0, i32 5
  %0 = load ptr, ptr %callback_, align 8
  %1 = load ptr, ptr %cb.addr, align 8
  %cmp = icmp ne ptr %0, %1
  br i1 %cmp, label %if.then, label %if.end

if.then:                                          ; preds = %entry
  %2 = load ptr, ptr %cb.addr, align 8
  %callback_2 = getelementptr inbounds %"class.proxygen::GenericFilter", ptr %this1, i32 0, i32 5
  store ptr %2, ptr %callback_2, align 8
  %callbackSource_ = getelementptr inbounds %"class.proxygen::GenericFilter", ptr %this1, i32 0, i32 9
  %3 = load ptr, ptr %callbackSource_, align 8
  %4 = getelementptr inbounds i8, ptr %3, i64 0
  br i1 true, label %memptr.virtual, label %memptr.nonvirtual

memptr.virtual:                                   ; preds = %if.then
  %vtable = load ptr, ptr %4, align 8
  %5 = getelementptr i8, ptr %vtable, i64 72, !nosanitize !4
  %memptr.virtualfn = load ptr, ptr %5, align 8, !nosanitize !4
  br label %memptr.end

memptr.nonvirtual:                                ; preds = %if.then
  br label %memptr.end

memptr.end:                                       ; preds = %memptr.nonvirtual, %memptr.virtual
  %6 = phi ptr [ %memptr.virtualfn, %memptr.virtual ], [ inttoptr (i64 73 to ptr), %memptr.nonvirtual ]
  %7 = load ptr, ptr %cb.addr, align 8
  %tobool = icmp ne ptr %7, null
  br i1 %tobool, label %cond.true, label %cond.false

cond.true:                                        ; preds = %memptr.end
  %8 = load ptr, ptr %sourceSet.addr, align 8
  br label %cond.end

cond.false:                                       ; preds = %memptr.end
  br label %cond.end

cond.end:                                         ; preds = %cond.false, %cond.true
  %cond = phi ptr [ %8, %cond.true ], [ null, %cond.false ]
  call void %6(ptr noundef nonnull align 8 dereferenceable(8) %4, ptr noundef %cond)
  br label %if.end

if.end:                                           ; preds = %cond.end, %entry
  ret void
}

; Function Attrs: mustprogress uwtable
define linkonce_odr void @_ZN8proxygen13GenericFilterINS_9HTTPCodecENS1_8CallbackEXadL_ZNS1_11setCallbackEPS2_EELb1ESt14default_deleteIS1_EE19setCallbackInternalES3_(ptr noundef nonnull align 8 dereferenceable(72) %this, ptr noundef %cb) #4 comdat align 2 {
entry:
  %this.addr = alloca ptr, align 8
  %cb.addr = alloca ptr, align 8
  store ptr %this, ptr %this.addr, align 8
  store ptr %cb, ptr %cb.addr, align 8
  %this1 = load ptr, ptr %this.addr, align 8
  %0 = load ptr, ptr %cb.addr, align 8
  %add.ptr = getelementptr inbounds i8, ptr %this1, i64 8
  call void @_ZN8proxygen13GenericFilterINS_9HTTPCodecENS1_8CallbackEXadL_ZNS1_11setCallbackEPS2_EELb1ESt14default_deleteIS1_EE23setCallbackInternalImplES3_S3_(ptr noundef nonnull align 8 dereferenceable(72) %this1, ptr noundef %0, ptr noundef %add.ptr)
  ret void
}

; Function Attrs: mustprogress uwtable
define void @_ZN8proxygen26PassThroughHTTPCodecFilter11setCallbackEPNS_9HTTPCodec8CallbackE(ptr noundef nonnull align 8 dereferenceable(72) %this, ptr noundef %callback) unnamed_addr #4 align 2 {
entry:
  %this.addr = alloca ptr, align 8
  %callback.addr = alloca ptr, align 8
  store ptr %this, ptr %this.addr, align 8
  store ptr %callback, ptr %callback.addr, align 8
  %this1 = load ptr, ptr %this.addr, align 8
  %0 = load ptr, ptr %callback.addr, align 8
  call void @_ZN8proxygen13GenericFilterINS_9HTTPCodecENS1_8CallbackEXadL_ZNS1_11setCallbackEPS2_EELb1ESt14default_deleteIS1_EE19setCallbackInternalES3_(ptr noundef nonnull align 8 dereferenceable(72) %this1, ptr noundef %0)
  ret void
}