; Function Attrs: mustprogress uwtable
define void @_ZN8proxygen26PassThroughHTTPCodecFilter11setCallbackEPNS_9HTTPCodec8CallbackE(ptr noundef nonnull align 8 dereferenceable(72) %this, ptr noundef %callback) unnamed_addr #3 align 2 {
entry:
  %callback_.i.i = getelementptr inbounds i8, ptr %this, i64 32
  %0 = load ptr, ptr %callback_.i.i, align 8
  %cmp.not.i.i = icmp eq ptr %0, %callback
  br i1 %cmp.not.i.i, label %_ZN8proxygen13GenericFilterINS_9HTTPCodecENS1_8CallbackEXadL_ZNS1_11setCallbackEPS2_EELb1ESt14default_deleteIS1_EE19setCallbackInternalES3_.exit, label %if.then.i.i

if.then.i.i:                                      ; preds = %entry
  %add.ptr.i = getelementptr inbounds i8, ptr %this, i64 8
  store ptr %callback, ptr %callback_.i.i, align 8
  %callbackSource_.i.i = getelementptr inbounds i8, ptr %this, i64 64
  %1 = load ptr, ptr %callbackSource_.i.i, align 8
  %vtable.i.i = load ptr, ptr %1, align 8
  %2 = getelementptr i8, ptr %vtable.i.i, i64 72, !nosanitize !4
  %memptr.virtualfn.i.i = load ptr, ptr %2, align 8, !nosanitize !4
  %tobool.not.i.i = icmp eq ptr %callback, null
  %cond.i.i = select i1 %tobool.not.i.i, ptr null, ptr %add.ptr.i
  tail call void %memptr.virtualfn.i.i(ptr noundef nonnull align 8 dereferenceable(8) %1, ptr noundef %cond.i.i)
  br label %_ZN8proxygen13GenericFilterINS_9HTTPCodecENS1_8CallbackEXadL_ZNS1_11setCallbackEPS2_EELb1ESt14default_deleteIS1_EE19setCallbackInternalES3_.exit

_ZN8proxygen13GenericFilterINS_9HTTPCodecENS1_8CallbackEXadL_ZNS1_11setCallbackEPS2_EELb1ESt14default_deleteIS1_EE19setCallbackInternalES3_.exit: ; preds = %entry, %if.then.i.i
  ret void
}